target datalayout = "e-m:e-p270:32:32-p271:32:32-p272:64:64-i64:64-i128:128-f80:128-n8:16:32:64-S128"
target triple = "x86_64-unknown-linux-gnu"

@.str = private unnamed_addr constant [11 x i8] c" in node '\00", align 1
@.str.1 = private unnamed_addr constant [18 x i8] c"' and attribute '\00", align 1
@.str.2 = private unnamed_addr constant [2 x i8] c"'\00", align 1
@_ZTI17DeadlyImportError = linkonce_odr constant { ptr, ptr, ptr } { ptr getelementptr inbounds (ptr, ptr @_ZTVN10__cxxabiv120__si_class_type_infoE, i64 2), ptr @_ZTS17DeadlyImportError, ptr @_ZTI15DeadlyErrorBase }, comdat, align 8
@.str.3 = private unnamed_addr constant [12 x i8] c"Attribute '\00", align 1
@.str.4 = private unnamed_addr constant [27 x i8] c"' does not exist in node '\00", align 1

; Function Attrs: mustprogress noreturn uwtable
define hidden void @_ZN6Assimp4Ogre18ThrowAttibuteErrorERKNSt7__cxx1112basic_stringIcSt11char_traitsIcESaIcEEES8_S8_(ptr noundef nonnull align 8 dereferenceable(32) %nodeName, ptr noundef nonnull align 8 dereferenceable(32) %name, ptr noundef nonnull align 8 dereferenceable(32) %error) #6 personality ptr @__gxx_personality_v0 {
entry:
  %nodeName.addr = alloca ptr, align 8
  %name.addr = alloca ptr, align 8
  %error.addr = alloca ptr, align 8
  %exn.slot = alloca ptr, align 8
  %ehselector.slot = alloca i32, align 4
  store ptr %nodeName, ptr %nodeName.addr, align 8
  store ptr %name, ptr %name.addr, align 8
  store ptr %error, ptr %error.addr, align 8
  %0 = load ptr, ptr %error.addr, align 8
  %call = call noundef zeroext i1 @_ZNKSt7__cxx1112basic_stringIcSt11char_traitsIcESaIcEE5emptyEv(ptr noundef nonnull align 8 dereferenceable(32) %0) #5
  br i1 %call, label %if.else, label %if.then

if.then:                                          ; preds = %entry
  %exception = call ptr @__cxa_allocate_exception(i64 16) #5
  %1 = load ptr, ptr %error.addr, align 8
  %2 = load ptr, ptr %nodeName.addr, align 8
  %3 = load ptr, ptr %name.addr, align 8
  invoke void @_ZN17DeadlyImportErrorC2IJRKNSt7__cxx1112basic_stringIcSt11char_traitsIcESaIcEEERA11_KcS8_RA18_S9_S8_RA2_S9_EEEDpOT_(ptr noundef nonnull align 8 dereferenceable(16) %exception, ptr noundef nonnull align 8 dereferenceable(32) %1, ptr noundef nonnull align 1 dereferenceable(11) @.str, ptr noundef nonnull align 8 dereferenceable(32) %2, ptr noundef nonnull align 1 dereferenceable(18) @.str.1, ptr noundef nonnull align 8 dereferenceable(32) %3, ptr noundef nonnull align 1 dereferenceable(2) @.str.2)
          to label %invoke.cont unwind label %lpad

invoke.cont:                                      ; preds = %if.then
  call void @__cxa_throw(ptr %exception, ptr @_ZTI17DeadlyImportError, ptr @_ZN17DeadlyImportErrorD2Ev) #19
  unreachable

lpad:                                             ; preds = %if.then
  %4 = landingpad { ptr, i32 }
          cleanup
  %5 = extractvalue { ptr, i32 } %4, 0
  store ptr %5, ptr %exn.slot, align 8
  %6 = extractvalue { ptr, i32 } %4, 1
  store i32 %6, ptr %ehselector.slot, align 4
  call void @__cxa_free_exception(ptr %exception) #5
  br label %eh.resume

if.else:                                          ; preds = %entry
  %exception1 = call ptr @__cxa_allocate_exception(i64 16) #5
  %7 = load ptr, ptr %name.addr, align 8
  %8 = load ptr, ptr %nodeName.addr, align 8
  invoke void @_ZN17DeadlyImportErrorC2IJRA12_KcRKNSt7__cxx1112basic_stringIcSt11char_traitsIcESaIcEEERA27_S1_SB_RA2_S1_EEEDpOT_(ptr noundef nonnull align 8 dereferenceable(16) %exception1, ptr noundef nonnull align 1 dereferenceable(12) @.str.3, ptr noundef nonnull align 8 dereferenceable(32) %7, ptr noundef nonnull align 1 dereferenceable(27) @.str.4, ptr noundef nonnull align 8 dereferenceable(32) %8, ptr noundef nonnull align 1 dereferenceable(2) @.str.2)
          to label %invoke.cont3 unwind label %lpad2

invoke.cont3:                                     ; preds = %if.else
  call void @__cxa_throw(ptr %exception1, ptr @_ZTI17DeadlyImportError, ptr @_ZN17DeadlyImportErrorD2Ev) #19
  unreachable

lpad2:                                            ; preds = %if.else
  %9 = landingpad { ptr, i32 }
          cleanup
  %10 = extractvalue { ptr, i32 } %9, 0
  store ptr %10, ptr %exn.slot, align 8
  %11 = extractvalue { ptr, i32 } %9, 1
  store i32 %11, ptr %ehselector.slot, align 4
  call void @__cxa_free_exception(ptr %exception1) #5
  br label %eh.resume

eh.resume:                                        ; preds = %lpad2, %lpad
  %exn = load ptr, ptr %exn.slot, align 8
  %sel = load i32, ptr %ehselector.slot, align 4
  %lpad.val = insertvalue { ptr, i32 } poison, ptr %exn, 0
  %lpad.val4 = insertvalue { ptr, i32 } %lpad.val, i32 %sel, 1
  resume { ptr, i32 } %lpad.val4
}