; Function Attrs: mustprogress noreturn uwtable
define hidden void @_ZN6Assimp4Ogre18ThrowAttibuteErrorERKNSt7__cxx1112basic_stringIcSt11char_traitsIcESaIcEEES8_S8_(ptr noundef nonnull align 8 dereferenceable(32) %nodeName, ptr noundef nonnull align 8 dereferenceable(32) %name, ptr noundef nonnull align 8 dereferenceable(32) %error) local_unnamed_addr #2 personality ptr @__gxx_personality_v0 {
entry:
  %call = tail call noundef zeroext i1 @_ZNKSt7__cxx1112basic_stringIcSt11char_traitsIcESaIcEE5emptyEv(ptr noundef nonnull align 8 dereferenceable(32) %error) #28
  %exception1 = tail call ptr @__cxa_allocate_exception(i64 16) #28
  br i1 %call, label %if.else, label %if.then

if.then:                                          ; preds = %entry
  invoke void @_ZN17DeadlyImportErrorC2IJRKNSt7__cxx1112basic_stringIcSt11char_traitsIcESaIcEEERA11_KcS8_RA18_S9_S8_RA2_S9_EEEDpOT_(ptr noundef nonnull align 8 dereferenceable(16) %exception1, ptr noundef nonnull align 8 dereferenceable(32) %error, ptr noundef nonnull align 1 dereferenceable(11) @.str, ptr noundef nonnull align 8 dereferenceable(32) %nodeName, ptr noundef nonnull align 1 dereferenceable(18) @.str.1, ptr noundef nonnull align 8 dereferenceable(32) %name, ptr noundef nonnull align 1 dereferenceable(2) @.str.2)
          to label %invoke.cont unwind label %lpad

invoke.cont:                                      ; preds = %if.then
  tail call void @__cxa_throw(ptr nonnull %exception1, ptr nonnull @_ZTI17DeadlyImportError, ptr nonnull @_ZN17DeadlyImportErrorD2Ev) #29
  unreachable

lpad:                                             ; preds = %if.then
  %0 = landingpad { ptr, i32 }
          cleanup
  br label %eh.resume

if.else:                                          ; preds = %entry
  invoke void @_ZN17DeadlyImportErrorC2IJRA12_KcRKNSt7__cxx1112basic_stringIcSt11char_traitsIcESaIcEEERA27_S1_SB_RA2_S1_EEEDpOT_(ptr noundef nonnull align 8 dereferenceable(16) %exception1, ptr noundef nonnull align 1 dereferenceable(12) @.str.3, ptr noundef nonnull align 8 dereferenceable(32) %name, ptr noundef nonnull align 1 dereferenceable(27) @.str.4, ptr noundef nonnull align 8 dereferenceable(32) %nodeName, ptr noundef nonnull align 1 dereferenceable(2) @.str.2)
          to label %invoke.cont3 unwind label %lpad2

invoke.cont3:                                     ; preds = %if.else
  tail call void @__cxa_throw(ptr nonnull %exception1, ptr nonnull @_ZTI17DeadlyImportError, ptr nonnull @_ZN17DeadlyImportErrorD2Ev) #29
  unreachable

lpad2:                                            ; preds = %if.else
  %1 = landingpad { ptr, i32 }
          cleanup
  br label %eh.resume

eh.resume:                                        ; preds = %lpad2, %lpad
  %.pn = phi { ptr, i32 } [ %1, %lpad2 ], [ %0, %lpad ]
  tail call void @__cxa_free_exception(ptr %exception1) #28
  resume { ptr, i32 } %.pn
}